target datalayout = "e-m:e-p270:32:32-p271:32:32-p272:64:64-i64:64-i128:128-f80:128-n8:16:32:64-S128"
target triple = "x86_64-pc-linux-gnu"

%struct.WebPPicture = type { i32, i32, i32, i32, ptr, ptr, ptr, i32, i32, ptr, i32, [2 x i32], ptr, i32, [3 x i32], ptr, ptr, i32, ptr, ptr, i32, ptr, ptr, [3 x i32], ptr, ptr, [8 x i32], ptr, ptr, [2 x ptr] }

@VP8LConvertBGRAToRGBA = external global ptr, align 8
@WebPPackRGB = external global ptr, align 8

; Function Attrs: nounwind uwtable
define internal i32 @Import(ptr noundef %0, ptr noundef %1, i32 noundef %2, i32 noundef %3, i32 noundef %4, i32 noundef %5) #0 {
  %7 = alloca i32, align 4
  %8 = alloca ptr, align 8
  %9 = alloca ptr, align 8
  %10 = alloca i32, align 4
  %11 = alloca i32, align 4
  %12 = alloca i32, align 4
  %13 = alloca i32, align 4
  %14 = alloca i32, align 4
  %15 = alloca ptr, align 8
  %16 = alloca ptr, align 8
  %17 = alloca ptr, align 8
  %18 = alloca i32, align 4
  %19 = alloca i32, align 4
  %20 = alloca i32, align 4
  %21 = alloca ptr, align 8
  %22 = alloca ptr, align 8
  %23 = alloca i32, align 4
  %24 = alloca ptr, align 8
  store ptr %0, ptr %8, align 8, !tbaa !3
  store ptr %1, ptr %9, align 8, !tbaa !20
  store i32 %2, ptr %10, align 4, !tbaa !21
  store i32 %3, ptr %11, align 4, !tbaa !21
  store i32 %4, ptr %12, align 4, !tbaa !21
  store i32 %5, ptr %13, align 4, !tbaa !21
  call void @llvm.lifetime.start.p0(i64 4, ptr %14) #7
  call void @llvm.lifetime.start.p0(i64 8, ptr %15) #7
  %25 = load ptr, ptr %9, align 8, !tbaa !20
  %26 = load i32, ptr %12, align 4, !tbaa !21
  %27 = icmp ne i32 %26, 0
  %28 = select i1 %27, i32 2, i32 0
  %29 = sext i32 %28 to i64
  %30 = getelementptr inbounds i8, ptr %25, i64 %29
  store ptr %30, ptr %15, align 8, !tbaa !20
  call void @llvm.lifetime.start.p0(i64 8, ptr %16) #7
  %31 = load ptr, ptr %9, align 8, !tbaa !20
  %32 = getelementptr inbounds i8, ptr %31, i64 1
  store ptr %32, ptr %16, align 8, !tbaa !20
  call void @llvm.lifetime.start.p0(i64 8, ptr %17) #7
  %33 = load ptr, ptr %9, align 8, !tbaa !20
  %34 = load i32, ptr %12, align 4, !tbaa !21
  %35 = icmp ne i32 %34, 0
  %36 = select i1 %35, i32 0, i32 2
  %37 = sext i32 %36 to i64
  %38 = getelementptr inbounds i8, ptr %33, i64 %37
  store ptr %38, ptr %17, align 8, !tbaa !20
  call void @llvm.lifetime.start.p0(i64 4, ptr %18) #7
  %39 = load ptr, ptr %8, align 8, !tbaa !3
  %40 = getelementptr inbounds nuw %struct.WebPPicture, ptr %39, i32 0, i32 2
  %41 = load i32, ptr %40, align 8, !tbaa !15
  store i32 %41, ptr %18, align 4, !tbaa !21
  call void @llvm.lifetime.start.p0(i64 4, ptr %19) #7
  %42 = load ptr, ptr %8, align 8, !tbaa !3
  %43 = getelementptr inbounds nuw %struct.WebPPicture, ptr %42, i32 0, i32 3
  %44 = load i32, ptr %43, align 4, !tbaa !16
  store i32 %44, ptr %19, align 4, !tbaa !21
  %45 = load i32, ptr %10, align 4, !tbaa !21
  %46 = call i32 @llvm.abs.i32(i32 %45, i1 true)
  %47 = load i32, ptr %13, align 4, !tbaa !21
  %48 = icmp ne i32 %47, 0
  %49 = select i1 %48, i32 4, i32 3
  %50 = load i32, ptr %18, align 4, !tbaa !21
  %51 = mul nsw i32 %49, %50
  %52 = icmp slt i32 %46, %51
  br i1 %52, label %53, label %54

53:                                               ; preds = %6
  store i32 0, ptr %7, align 4
  store i32 1, ptr %20, align 4
  br label %182

54:                                               ; preds = %6
  %55 = load ptr, ptr %8, align 8, !tbaa !3
  %56 = getelementptr inbounds nuw %struct.WebPPicture, ptr %55, i32 0, i32 0
  %57 = load i32, ptr %56, align 8, !tbaa !8
  %58 = icmp ne i32 %57, 0
  br i1 %58, label %76, label %59

59:                                               ; preds = %54
  call void @llvm.lifetime.start.p0(i64 8, ptr %21) #7
  %60 = load i32, ptr %13, align 4, !tbaa !21
  %61 = icmp ne i32 %60, 0
  br i1 %61, label %62, label %65

62:                                               ; preds = %59
  %63 = load ptr, ptr %9, align 8, !tbaa !20
  %64 = getelementptr inbounds i8, ptr %63, i64 3
  br label %66

65:                                               ; preds = %59
  br label %66

66:                                               ; preds = %65, %62
  %67 = phi ptr [ %64, %62 ], [ null, %65 ]
  store ptr %67, ptr %21, align 8, !tbaa !20
  %68 = load ptr, ptr %15, align 8, !tbaa !20
  %69 = load ptr, ptr %16, align 8, !tbaa !20
  %70 = load ptr, ptr %17, align 8, !tbaa !20
  %71 = load ptr, ptr %21, align 8, !tbaa !20
  %72 = load i32, ptr %11, align 4, !tbaa !21
  %73 = load i32, ptr %10, align 4, !tbaa !21
  %74 = load ptr, ptr %8, align 8, !tbaa !3
  %75 = call i32 @ImportYUVAFromRGBA(ptr noundef %68, ptr noundef %69, ptr noundef %70, ptr noundef %71, i32 noundef %72, i32 noundef %73, float noundef 0.000000e+00, i32 noundef 0, ptr noundef %74)
  store i32 %75, ptr %7, align 4
  store i32 1, ptr %20, align 4
  call void @llvm.lifetime.end.p0(i64 8, ptr %21) #7
  br label %182

76:                                               ; preds = %54
  %77 = load ptr, ptr %8, align 8, !tbaa !3
  %78 = call i32 @WebPPictureAlloc(ptr noundef %77)
  %79 = icmp ne i32 %78, 0
  br i1 %79, label %81, label %80

80:                                               ; preds = %76
  store i32 0, ptr %7, align 4
  store i32 1, ptr %20, align 4
  br label %182

81:                                               ; preds = %76
  call void @VP8LDspInit()
  call void @WebPInitAlphaProcessing()
  %82 = load i32, ptr %13, align 4, !tbaa !21
  %83 = icmp ne i32 %82, 0
  br i1 %83, label %84, label %143

84:                                               ; preds = %81
  call void @llvm.lifetime.start.p0(i64 8, ptr %22) #7
  %85 = load ptr, ptr %8, align 8, !tbaa !3
  %86 = getelementptr inbounds nuw %struct.WebPPicture, ptr %85, i32 0, i32 12
  %87 = load ptr, ptr %86, align 8, !tbaa !14
  store ptr %87, ptr %22, align 8, !tbaa !35
  call void @llvm.lifetime.start.p0(i64 4, ptr %23) #7
  %88 = load i32, ptr %12, align 4, !tbaa !21
  %89 = icmp ne i32 %88, 0
  %90 = zext i1 %89 to i32
  store i32 %90, ptr %23, align 4, !tbaa !21
  %91 = load i32, ptr %23, align 4, !tbaa !21
  %92 = icmp ne i32 %91, 0
  br i1 %92, label %93, label %118

93:                                               ; preds = %84
  store i32 0, ptr %14, align 4, !tbaa !21
  br label %94

94:                                               ; preds = %114, %93
  %95 = load i32, ptr %14, align 4, !tbaa !21
  %96 = load i32, ptr %19, align 4, !tbaa !21
  %97 = icmp slt i32 %95, %96
  br i1 %97, label %98, label %117

98:                                               ; preds = %94
  %99 = load ptr, ptr %22, align 8, !tbaa !35
  %100 = load ptr, ptr %9, align 8, !tbaa !20
  %101 = load i32, ptr %18, align 4, !tbaa !21
  %102 = mul nsw i32 %101, 4
  %103 = sext i32 %102 to i64
  call void @llvm.memcpy.p0.p0.i64(ptr align 4 %99, ptr align 1 %100, i64 %103, i1 false)
  %104 = load i32, ptr %10, align 4, !tbaa !21
  %105 = load ptr, ptr %9, align 8, !tbaa !20
  %106 = sext i32 %104 to i64
  %107 = getelementptr inbounds i8, ptr %105, i64 %106
  store ptr %107, ptr %9, align 8, !tbaa !20
  %108 = load ptr, ptr %8, align 8, !tbaa !3
  %109 = getelementptr inbounds nuw %struct.WebPPicture, ptr %108, i32 0, i32 13
  %110 = load i32, ptr %109, align 8, !tbaa !17
  %111 = load ptr, ptr %22, align 8, !tbaa !35
  %112 = sext i32 %110 to i64
  %113 = getelementptr inbounds i32, ptr %111, i64 %112
  store ptr %113, ptr %22, align 8, !tbaa !35
  br label %114

114:                                              ; preds = %98
  %115 = load i32, ptr %14, align 4, !tbaa !21
  %116 = add nsw i32 %115, 1
  store i32 %116, ptr %14, align 4, !tbaa !21
  br label %94, !llvm.loop !39

117:                                              ; preds = %94
  br label %142

118:                                              ; preds = %84
  store i32 0, ptr %14, align 4, !tbaa !21
  br label %119

119:                                              ; preds = %138, %118
  %120 = load i32, ptr %14, align 4, !tbaa !21
  %121 = load i32, ptr %19, align 4, !tbaa !21
  %122 = icmp slt i32 %120, %121
  br i1 %122, label %123, label %141

123:                                              ; preds = %119
  %124 = load ptr, ptr @VP8LConvertBGRAToRGBA, align 8, !tbaa !22
  %125 = load ptr, ptr %9, align 8, !tbaa !20
  %126 = load i32, ptr %18, align 4, !tbaa !21
  %127 = load ptr, ptr %22, align 8, !tbaa !35
  call void %124(ptr noundef %125, i32 noundef %126, ptr noundef %127)
  %128 = load i32, ptr %10, align 4, !tbaa !21
  %129 = load ptr, ptr %9, align 8, !tbaa !20
  %130 = sext i32 %128 to i64
  %131 = getelementptr inbounds i8, ptr %129, i64 %130
  store ptr %131, ptr %9, align 8, !tbaa !20
  %132 = load ptr, ptr %8, align 8, !tbaa !3
  %133 = getelementptr inbounds nuw %struct.WebPPicture, ptr %132, i32 0, i32 13
  %134 = load i32, ptr %133, align 8, !tbaa !17
  %135 = load ptr, ptr %22, align 8, !tbaa !35
  %136 = sext i32 %134 to i64
  %137 = getelementptr inbounds i32, ptr %135, i64 %136
  store ptr %137, ptr %22, align 8, !tbaa !35
  br label %138

138:                                              ; preds = %123
  %139 = load i32, ptr %14, align 4, !tbaa !21
  %140 = add nsw i32 %139, 1
  store i32 %140, ptr %14, align 4, !tbaa !21
  br label %119, !llvm.loop !40

141:                                              ; preds = %119
  br label %142

142:                                              ; preds = %141, %117
  call void @llvm.lifetime.end.p0(i64 4, ptr %23) #7
  call void @llvm.lifetime.end.p0(i64 8, ptr %22) #7
  br label %181

143:                                              ; preds = %81
  call void @llvm.lifetime.start.p0(i64 8, ptr %24) #7
  %144 = load ptr, ptr %8, align 8, !tbaa !3
  %145 = getelementptr inbounds nuw %struct.WebPPicture, ptr %144, i32 0, i32 12
  %146 = load ptr, ptr %145, align 8, !tbaa !14
  store ptr %146, ptr %24, align 8, !tbaa !35
  store i32 0, ptr %14, align 4, !tbaa !21
  br label %147

147:                                              ; preds = %177, %143
  %148 = load i32, ptr %14, align 4, !tbaa !21
  %149 = load i32, ptr %19, align 4, !tbaa !21
  %150 = icmp slt i32 %148, %149
  br i1 %150, label %151, label %180

151:                                              ; preds = %147
  %152 = load ptr, ptr @WebPPackRGB, align 8, !tbaa !22
  %153 = load ptr, ptr %15, align 8, !tbaa !20
  %154 = load ptr, ptr %16, align 8, !tbaa !20
  %155 = load ptr, ptr %17, align 8, !tbaa !20
  %156 = load i32, ptr %18, align 4, !tbaa !21
  %157 = load i32, ptr %11, align 4, !tbaa !21
  %158 = load ptr, ptr %24, align 8, !tbaa !35
  call void %152(ptr noundef %153, ptr noundef %154, ptr noundef %155, i32 noundef %156, i32 noundef %157, ptr noundef %158)
  %159 = load i32, ptr %10, align 4, !tbaa !21
  %160 = load ptr, ptr %15, align 8, !tbaa !20
  %161 = sext i32 %159 to i64
  %162 = getelementptr inbounds i8, ptr %160, i64 %161
  store ptr %162, ptr %15, align 8, !tbaa !20
  %163 = load i32, ptr %10, align 4, !tbaa !21
  %164 = load ptr, ptr %16, align 8, !tbaa !20
  %165 = sext i32 %163 to i64
  %166 = getelementptr inbounds i8, ptr %164, i64 %165
  store ptr %166, ptr %16, align 8, !tbaa !20
  %167 = load i32, ptr %10, align 4, !tbaa !21
  %168 = load ptr, ptr %17, align 8, !tbaa !20
  %169 = sext i32 %167 to i64
  %170 = getelementptr inbounds i8, ptr %168, i64 %169
  store ptr %170, ptr %17, align 8, !tbaa !20
  %171 = load ptr, ptr %8, align 8, !tbaa !3
  %172 = getelementptr inbounds nuw %struct.WebPPicture, ptr %171, i32 0, i32 13
  %173 = load i32, ptr %172, align 8, !tbaa !17
  %174 = load ptr, ptr %24, align 8, !tbaa !35
  %175 = sext i32 %173 to i64
  %176 = getelementptr inbounds i32, ptr %174, i64 %175
  store ptr %176, ptr %24, align 8, !tbaa !35
  br label %177

177:                                              ; preds = %151
  %178 = load i32, ptr %14, align 4, !tbaa !21
  %179 = add nsw i32 %178, 1
  store i32 %179, ptr %14, align 4, !tbaa !21
  br label %147, !llvm.loop !41

180:                                              ; preds = %147
  call void @llvm.lifetime.end.p0(i64 8, ptr %24) #7
  br label %181

181:                                              ; preds = %180, %142
  store i32 1, ptr %7, align 4
  store i32 1, ptr %20, align 4
  br label %182

182:                                              ; preds = %181, %80, %66, %53
  call void @llvm.lifetime.end.p0(i64 4, ptr %19) #7
  call void @llvm.lifetime.end.p0(i64 4, ptr %18) #7
  call void @llvm.lifetime.end.p0(i64 8, ptr %17) #7
  call void @llvm.lifetime.end.p0(i64 8, ptr %16) #7
  call void @llvm.lifetime.end.p0(i64 8, ptr %15) #7
  call void @llvm.lifetime.end.p0(i64 4, ptr %14) #7
  %183 = load i32, ptr %7, align 4
  ret i32 %183
}

; Function Attrs: nounwind uwtable
define i32 @WebPPictureImportBGRX(ptr noundef %0, ptr noundef %1, i32 noundef %2) #0 {
  %4 = alloca ptr, align 8
  %5 = alloca ptr, align 8
  %6 = alloca i32, align 4
  store ptr %0, ptr %4, align 8, !tbaa !3
  store ptr %1, ptr %5, align 8, !tbaa !20
  store i32 %2, ptr %6, align 4, !tbaa !21
  %7 = load ptr, ptr %4, align 8, !tbaa !3
  %8 = icmp ne ptr %7, null
  br i1 %8, label %9, label %17

9:                                                ; preds = %3
  %10 = load ptr, ptr %5, align 8, !tbaa !20
  %11 = icmp ne ptr %10, null
  br i1 %11, label %12, label %17

12:                                               ; preds = %9
  %13 = load ptr, ptr %4, align 8, !tbaa !3
  %14 = load ptr, ptr %5, align 8, !tbaa !20
  %15 = load i32, ptr %6, align 4, !tbaa !21
  %16 = call i32 @Import(ptr noundef %13, ptr noundef %14, i32 noundef %15, i32 noundef 4, i32 noundef 1, i32 noundef 0)
  br label %18

17:                                               ; preds = %9, %3
  br label %18

18:                                               ; preds = %17, %12
  %19 = phi i32 [ %16, %12 ], [ 0, %17 ]
  ret i32 %19
}