; Function Attrs: nounwind uwtable
define i32 @WebPPictureImportBGRX(ptr noundef %0, ptr noundef %1, i32 noundef %2) local_unnamed_addr #0 {
  %4 = icmp ne ptr %0, null
  %5 = icmp ne ptr %1, null
  %or.cond = and i1 %4, %5
  br i1 %or.cond, label %6, label %Import.exit

6:                                                ; preds = %3
  %7 = getelementptr inbounds nuw i8, ptr %1, i64 2
  %8 = getelementptr inbounds nuw i8, ptr %1, i64 1
  %9 = getelementptr inbounds nuw i8, ptr %0, i64 8
  %10 = load i32, ptr %9, align 8, !tbaa !13
  %11 = getelementptr inbounds nuw i8, ptr %0, i64 12
  %12 = load i32, ptr %11, align 4, !tbaa !14
  %13 = tail call i32 @llvm.abs.i32(i32 %2, i1 true)
  %14 = mul nsw i32 %10, 3
  %15 = icmp slt i32 %13, %14
  br i1 %15, label %Import.exit, label %16

16:                                               ; preds = %6
  %17 = load i32, ptr %0, align 8, !tbaa !3
  %.not73.i = icmp eq i32 %17, 0
  br i1 %.not73.i, label %18, label %20

18:                                               ; preds = %16
  %19 = tail call fastcc i32 @ImportYUVAFromRGBA(ptr noundef %7, ptr noundef %8, ptr noundef %1, ptr noundef null, i32 noundef 4, i32 noundef %2, float noundef 0.000000e+00, i32 noundef 0, ptr noundef nonnull %0)
  br label %Import.exit

20:                                               ; preds = %16
  %21 = tail call i32 @WebPPictureAlloc(ptr noundef nonnull %0) #9
  %.not74.i = icmp eq i32 %21, 0
  br i1 %.not74.i, label %Import.exit, label %22

22:                                               ; preds = %20
  tail call void @VP8LDspInit() #9
  tail call void @WebPInitAlphaProcessing() #9
  %23 = icmp sgt i32 %12, 0
  br i1 %23, label %.lr.ph90.i, label %Import.exit

.lr.ph90.i:                                       ; preds = %22
  %24 = getelementptr inbounds nuw i8, ptr %0, i64 72
  %25 = load ptr, ptr %24, align 8, !tbaa !12
  %26 = sext i32 %2 to i64
  %27 = getelementptr inbounds nuw i8, ptr %0, i64 80
  br label %28

28:                                               ; preds = %28, %.lr.ph90.i
  %.089.i = phi ptr [ %25, %.lr.ph90.i ], [ %35, %28 ]
  %.288.i = phi i32 [ 0, %.lr.ph90.i ], [ %36, %28 ]
  %.06987.i = phi ptr [ %7, %.lr.ph90.i ], [ %30, %28 ]
  %.07086.i = phi ptr [ %1, %.lr.ph90.i ], [ %32, %28 ]
  %.07185.i = phi ptr [ %8, %.lr.ph90.i ], [ %31, %28 ]
  %29 = load ptr, ptr @WebPPackRGB, align 8, !tbaa !16
  tail call void %29(ptr noundef %.06987.i, ptr noundef %.07185.i, ptr noundef %.07086.i, i32 noundef %10, i32 noundef 4, ptr noundef %.089.i) #9
  %30 = getelementptr inbounds i8, ptr %.06987.i, i64 %26
  %31 = getelementptr inbounds i8, ptr %.07185.i, i64 %26
  %32 = getelementptr inbounds i8, ptr %.07086.i, i64 %26
  %33 = load i32, ptr %27, align 8, !tbaa !15
  %34 = sext i32 %33 to i64
  %35 = getelementptr inbounds i32, ptr %.089.i, i64 %34
  %36 = add nuw nsw i32 %.288.i, 1
  %exitcond94.not.i = icmp eq i32 %36, %12
  br i1 %exitcond94.not.i, label %Import.exit, label %28, !llvm.loop !33

Import.exit:                                      ; preds = %28, %22, %20, %18, %6, %3
  %37 = phi i32 [ 0, %3 ], [ %19, %18 ], [ 0, %6 ], [ 0, %20 ], [ 1, %22 ], [ 1, %28 ]
  ret i32 %37
}